; Function Attrs: mustprogress uwtable
define range(i32 0, -2147483648) i32 @uprv_copyAscii_77(ptr noundef %0, ptr noundef readonly %1, i32 noundef %2, ptr noundef writeonly %3, ptr noundef %4) local_unnamed_addr #2 {
  %6 = icmp eq ptr %4, null
  br i1 %6, label %._crit_edge.thread, label %7

7:                                                ; preds = %5
  %8 = load i32, ptr %4, align 4, !tbaa !15
  %9 = icmp slt i32 %8, 1
  br i1 %9, label %10, label %._crit_edge.thread

10:                                               ; preds = %7
  %11 = icmp eq ptr %0, null
  %12 = icmp eq ptr %1, null
  %or.cond = or i1 %11, %12
  %13 = icmp slt i32 %2, 0
  %or.cond3 = or i1 %or.cond, %13
  br i1 %or.cond3, label %17, label %14

14:                                               ; preds = %10
  %15 = icmp ne i32 %2, 0
  %16 = icmp eq ptr %3, null
  %or.cond5 = and i1 %15, %16
  br i1 %or.cond5, label %17, label %.preheader

.preheader:                                       ; preds = %14
  %.not = icmp eq i32 %2, 0
  br i1 %.not, label %._crit_edge.thread, label %.lr.ph

17:                                               ; preds = %14, %10
  store i32 1, ptr %4, align 4, !tbaa !15
  br label %._crit_edge.thread

.lr.ph:                                           ; preds = %.preheader, %32
  %.047 = phi i32 [ %33, %32 ], [ %2, %.preheader ]
  %.03446 = phi ptr [ %18, %32 ], [ %1, %.preheader ]
  %18 = getelementptr inbounds nuw i8, ptr %.03446, i64 1
  %19 = load i8, ptr %.03446, align 1, !tbaa !3
  %20 = icmp sgt i8 %19, -1
  br i1 %20, label %21, label %30

21:                                               ; preds = %.lr.ph
  %22 = zext nneg i8 %19 to i32
  %23 = lshr i32 %22, 5
  %24 = zext nneg i32 %23 to i64
  %25 = getelementptr inbounds nuw [4 x i32], ptr @_ZL14invariantChars, i64 0, i64 %24
  %26 = load i32, ptr %25, align 4, !tbaa !10
  %27 = and i32 %22, 31
  %28 = shl nuw i32 1, %27
  %29 = and i32 %26, %28
  %.not42 = icmp eq i32 %29, 0
  br i1 %.not42, label %30, label %32

30:                                               ; preds = %21, %.lr.ph
  %31 = sub nsw i32 %2, %.047
  tail call void (ptr, ptr, ...) @udata_printError_77(ptr noundef %0, ptr noundef nonnull @.str.1, i32 noundef %2, i32 noundef %31)
  store i32 10, ptr %4, align 4, !tbaa !15
  br label %._crit_edge.thread

32:                                               ; preds = %21
  %33 = add nsw i32 %.047, -1
  %34 = icmp sgt i32 %.047, 1
  br i1 %34, label %.lr.ph, label %._crit_edge, !llvm.loop !18

._crit_edge:                                      ; preds = %32
  %.not41 = icmp ne ptr %1, %3
  %or.cond44.not = and i1 %15, %.not41
  br i1 %or.cond44.not, label %35, label %._crit_edge.thread

35:                                               ; preds = %._crit_edge
  %36 = zext nneg i32 %2 to i64
  tail call void @llvm.memcpy.p0.p0.i64(ptr align 1 %3, ptr align 1 %1, i64 %36, i1 false)
  br label %._crit_edge.thread

._crit_edge.thread:                               ; preds = %.preheader, %._crit_edge, %35, %5, %7, %30, %17
  %.033 = phi i32 [ 0, %17 ], [ 0, %30 ], [ 0, %7 ], [ 0, %5 ], [ %2, %35 ], [ %2, %._crit_edge ], [ 0, %.preheader ]
  ret i32 %.033
}